; Function Attrs: mustprogress uwtable
define noundef nonnull ptr @_ZN9grpc_core17CoreConfiguration7Builder5BuildEv(ptr noundef nonnull align 16 dereferenceable(880) %0) local_unnamed_addr #3 align 2 personality ptr @__gxx_personality_v0 {
  %2 = tail call noalias noundef nonnull dereferenceable(776) ptr @_Znwm(i64 noundef 776) #25
  invoke void @_ZN9grpc_core17CoreConfigurationC1EPNS0_7BuilderE(ptr noundef nonnull align 8 dereferenceable(776) %2, ptr noundef nonnull %0)
          to label %3 unwind label %4

3:                                                ; preds = %1
  ret ptr %2

4:                                                ; preds = %1
  %5 = landingpad { ptr, i32 }
          cleanup
  tail call void @_ZdlPvm(ptr noundef nonnull %2, i64 noundef 776) #23
  resume { ptr, i32 } %5
}